target datalayout = "e-m:e-p270:32:32-p271:32:32-p272:64:64-i64:64-i128:128-f80:128-n8:16:32:64-S128"
target triple = "x86_64-pc-linux-gnu"

%class.PerfData = type { ptr, ptr, i32, i32, i8, i32, ptr, ptr }
%"class.AbstractClassHierarchyWalker::CountingClassHierarchyIterator" = type { %class.ClassHierarchyIterator.base, i64 }
%class.ClassHierarchyIterator.base = type <{ ptr, ptr, i8 }>
%class.ClassHierarchyIterator = type <{ ptr, ptr, i8, [7 x i8] }>

@_ZN28AbstractClassHierarchyWalker39_perf_find_witness_anywhere_steps_countE = hidden global ptr null, align 8
@UsePerfData = external global i8, align 1

; Function Attrs: mustprogress nounwind uwtable
define linkonce_odr hidden void @_ZN15PerfLongVariant3incEl(ptr noundef nonnull align 8 dereferenceable(56) %0, i64 noundef %1) #1 comdat align 2 {
  %3 = alloca ptr, align 8
  %4 = alloca i64, align 8
  store ptr %0, ptr %3, align 8
  store i64 %1, ptr %4, align 8
  %5 = load ptr, ptr %3, align 8
  %6 = load i64, ptr %4, align 8
  %7 = getelementptr inbounds %class.PerfData, ptr %5, i32 0, i32 7
  %8 = load ptr, ptr %7, align 8
  %9 = load i64, ptr %8, align 8
  %10 = add nsw i64 %9, %6
  store i64 %10, ptr %8, align 8
  ret void
}

; Function Attrs: mustprogress nounwind uwtable
define linkonce_odr hidden void @_ZN22ClassHierarchyIteratorC2EP13InstanceKlass(ptr noundef nonnull align 8 dereferenceable(17) %0, ptr noundef %1) unnamed_addr #1 comdat align 2 {
  %3 = alloca ptr, align 8
  %4 = alloca ptr, align 8
  store ptr %0, ptr %3, align 8
  store ptr %1, ptr %4, align 8
  %5 = load ptr, ptr %3, align 8
  %6 = getelementptr inbounds %class.ClassHierarchyIterator, ptr %5, i32 0, i32 0
  %7 = load ptr, ptr %4, align 8
  store ptr %7, ptr %6, align 8
  %8 = getelementptr inbounds %class.ClassHierarchyIterator, ptr %5, i32 0, i32 1
  %9 = load ptr, ptr %4, align 8
  store ptr %9, ptr %8, align 8
  %10 = getelementptr inbounds %class.ClassHierarchyIterator, ptr %5, i32 0, i32 2
  store i8 1, ptr %10, align 8
  ret void
}

; Function Attrs: mustprogress nounwind uwtable
define linkonce_odr hidden void @_ZN28AbstractClassHierarchyWalker30CountingClassHierarchyIteratorD2Ev(ptr noundef nonnull align 8 dereferenceable(32) %0) unnamed_addr #1 comdat align 2 {
  %2 = alloca ptr, align 8
  store ptr %0, ptr %2, align 8
  %3 = load ptr, ptr %2, align 8
  %4 = load i8, ptr @UsePerfData, align 1
  %5 = trunc i8 %4 to i1
  br i1 %5, label %6, label %10

6:                                                ; preds = %1
  %7 = load ptr, ptr @_ZN28AbstractClassHierarchyWalker39_perf_find_witness_anywhere_steps_countE, align 8
  %8 = getelementptr inbounds %"class.AbstractClassHierarchyWalker::CountingClassHierarchyIterator", ptr %3, i32 0, i32 1
  %9 = load i64, ptr %8, align 8
  call void @_ZN15PerfLongVariant3incEl(ptr noundef nonnull align 8 dereferenceable(56) %7, i64 noundef %9)
  br label %10

10:                                               ; preds = %6, %1
  ret void
}

; Function Attrs: mustprogress nounwind uwtable
define linkonce_odr hidden void @_ZN28AbstractClassHierarchyWalker30CountingClassHierarchyIterator4nextEv(ptr noundef nonnull align 8 dereferenceable(32) %0) #1 comdat align 2 {
  %2 = alloca ptr, align 8
  store ptr %0, ptr %2, align 8
  %3 = load ptr, ptr %2, align 8
  %4 = getelementptr inbounds %"class.AbstractClassHierarchyWalker::CountingClassHierarchyIterator", ptr %3, i32 0, i32 1
  %5 = load i64, ptr %4, align 8
  %6 = add nsw i64 %5, 1
  store i64 %6, ptr %4, align 8
  call void @_ZN22ClassHierarchyIterator4nextEv(ptr noundef nonnull align 8 dereferenceable(17) %3)
  ret void
}

; Function Attrs: mustprogress nounwind uwtable
define linkonce_odr hidden noundef ptr @_ZN22ClassHierarchyIterator5klassEv(ptr noundef nonnull align 8 dereferenceable(17) %0) #1 comdat align 2 {
  %2 = alloca ptr, align 8
  store ptr %0, ptr %2, align 8
  %3 = load ptr, ptr %2, align 8
  %4 = getelementptr inbounds %class.ClassHierarchyIterator, ptr %3, i32 0, i32 1
  %5 = load ptr, ptr %4, align 8
  ret ptr %5
}

; Function Attrs: mustprogress nounwind uwtable
define linkonce_odr hidden noundef zeroext i1 @_ZN22ClassHierarchyIterator4doneEv(ptr noundef nonnull align 8 dereferenceable(17) %0) #1 comdat align 2 {
  %2 = alloca ptr, align 8
  store ptr %0, ptr %2, align 8
  %3 = load ptr, ptr %2, align 8
  %4 = getelementptr inbounds %class.ClassHierarchyIterator, ptr %3, i32 0, i32 1
  %5 = load ptr, ptr %4, align 8
  %6 = icmp eq ptr %5, null
  ret i1 %6
}

; Function Attrs: mustprogress nounwind uwtable
define linkonce_odr hidden void @_ZN28AbstractClassHierarchyWalker30CountingClassHierarchyIteratorC2EP13InstanceKlass(ptr noundef nonnull align 8 dereferenceable(32) %0, ptr noundef %1) unnamed_addr #1 comdat align 2 {
  %3 = alloca ptr, align 8
  %4 = alloca ptr, align 8
  store ptr %0, ptr %3, align 8
  store ptr %1, ptr %4, align 8
  %5 = load ptr, ptr %3, align 8
  %6 = load ptr, ptr %4, align 8
  call void @_ZN22ClassHierarchyIteratorC2EP13InstanceKlass(ptr noundef nonnull align 8 dereferenceable(17) %5, ptr noundef %6)
  %7 = getelementptr inbounds %"class.AbstractClassHierarchyWalker::CountingClassHierarchyIterator", ptr %5, i32 0, i32 1
  store i64 0, ptr %7, align 8
  ret void
}

; Function Attrs: mustprogress nounwind uwtable
define hidden noundef ptr @_ZN20ConcreteMethodFinder21find_witness_anywhereEP13InstanceKlass(ptr noundef nonnull align 8 dereferenceable(104) %0, ptr noundef %1) unnamed_addr #1 align 2 {
  %3 = alloca ptr, align 8
  %4 = alloca ptr, align 8
  %5 = alloca ptr, align 8
  %6 = alloca %"class.AbstractClassHierarchyWalker::CountingClassHierarchyIterator", align 8
  %7 = alloca i32, align 4
  %8 = alloca ptr, align 8
  store ptr %0, ptr %4, align 8
  store ptr %1, ptr %5, align 8
  %9 = load ptr, ptr %4, align 8
  %10 = load ptr, ptr %5, align 8
  call void @_ZN28AbstractClassHierarchyWalker30CountingClassHierarchyIteratorC2EP13InstanceKlass(ptr noundef nonnull align 8 dereferenceable(32) %6, ptr noundef %10)
  br label %11

11:                                               ; preds = %22, %2
  %12 = call noundef zeroext i1 @_ZN22ClassHierarchyIterator4doneEv(ptr noundef nonnull align 8 dereferenceable(17) %6)
  %13 = xor i1 %12, true
  br i1 %13, label %15, label %14

14:                                               ; preds = %11
  store i32 2, ptr %7, align 4
  br label %23

15:                                               ; preds = %11
  %16 = call noundef ptr @_ZN22ClassHierarchyIterator5klassEv(ptr noundef nonnull align 8 dereferenceable(17) %6)
  store ptr %16, ptr %8, align 8
  %17 = load ptr, ptr %8, align 8
  %18 = call noundef zeroext i1 @_ZN20ConcreteMethodFinder10is_witnessEP5Klass(ptr noundef nonnull align 8 dereferenceable(104) %9, ptr noundef %17)
  br i1 %18, label %19, label %21

19:                                               ; preds = %15
  %20 = load ptr, ptr %8, align 8
  store ptr %20, ptr %3, align 8
  store i32 1, ptr %7, align 4
  br label %23

21:                                               ; preds = %15
  br label %22

22:                                               ; preds = %21
  call void @_ZN28AbstractClassHierarchyWalker30CountingClassHierarchyIterator4nextEv(ptr noundef nonnull align 8 dereferenceable(32) %6)
  br label %11, !llvm.loop !43

23:                                               ; preds = %19, %14
  call void @_ZN28AbstractClassHierarchyWalker30CountingClassHierarchyIteratorD2Ev(ptr noundef nonnull align 8 dereferenceable(32) %6) #8
  %24 = load i32, ptr %7, align 4
  switch i32 %24, label %28 [
    i32 2, label %25
    i32 1, label %26
  ]

25:                                               ; preds = %23
  store ptr null, ptr %3, align 8
  br label %26

26:                                               ; preds = %25, %23
  %27 = load ptr, ptr %3, align 8
  ret ptr %27

28:                                               ; preds = %23
  unreachable
}