; Function Attrs: mustprogress nounwind uwtable
define hidden noundef ptr @_ZN20ConcreteMethodFinder21find_witness_anywhereEP13InstanceKlass(ptr nocapture noundef nonnull align 8 dereferenceable(104) %0, ptr noundef %1) unnamed_addr #0 align 2 {
  %3 = alloca %"class.AbstractClassHierarchyWalker::CountingClassHierarchyIterator", align 8
  store ptr %1, ptr %3, align 8
  %4 = getelementptr inbounds i8, ptr %3, i64 8
  store ptr %1, ptr %4, align 8
  %5 = getelementptr inbounds i8, ptr %3, i64 16
  store i8 1, ptr %5, align 8
  %6 = getelementptr inbounds i8, ptr %3, i64 24
  store i64 0, ptr %6, align 8
  %7 = icmp eq ptr %1, null
  br i1 %7, label %._crit_edge, label %.lr.ph

.lr.ph:                                           ; preds = %2, %10
  %8 = phi ptr [ %.pr, %10 ], [ %1, %2 ]
  %9 = call noundef zeroext i1 @_ZN20ConcreteMethodFinder10is_witnessEP5Klass(ptr noundef nonnull align 8 dereferenceable(104) %0, ptr noundef nonnull %8)
  br i1 %9, label %._crit_edge, label %10

10:                                               ; preds = %.lr.ph
  %11 = load i64, ptr %6, align 8
  %12 = add nsw i64 %11, 1
  store i64 %12, ptr %6, align 8
  call void @_ZN22ClassHierarchyIterator4nextEv(ptr noundef nonnull align 8 dereferenceable(17) %3) #18
  %.pr = load ptr, ptr %4, align 8
  %13 = icmp eq ptr %.pr, null
  br i1 %13, label %._crit_edge, label %.lr.ph, !llvm.loop !52

._crit_edge:                                      ; preds = %10, %.lr.ph, %2
  %.lcssa = phi ptr [ null, %2 ], [ %8, %.lr.ph ], [ null, %10 ]
  %14 = load i8, ptr @UsePerfData, align 1
  %15 = trunc i8 %14 to i1
  br i1 %15, label %16, label %_ZN28AbstractClassHierarchyWalker30CountingClassHierarchyIteratorD2Ev.exit

16:                                               ; preds = %._crit_edge
  %17 = load ptr, ptr @_ZN28AbstractClassHierarchyWalker39_perf_find_witness_anywhere_steps_countE, align 8
  %18 = load i64, ptr %6, align 8
  %19 = getelementptr inbounds i8, ptr %17, i64 40
  %20 = load ptr, ptr %19, align 8
  %21 = load i64, ptr %20, align 8
  %22 = add nsw i64 %21, %18
  store i64 %22, ptr %20, align 8
  br label %_ZN28AbstractClassHierarchyWalker30CountingClassHierarchyIteratorD2Ev.exit

_ZN28AbstractClassHierarchyWalker30CountingClassHierarchyIteratorD2Ev.exit: ; preds = %._crit_edge, %16
  ret ptr %.lcssa
}